; Function Attrs: mustprogress nounwind uwtable
define void @_ZN9SchedulerD2Ev(ptr noundef nonnull align 8 dereferenceable(43416) %0) unnamed_addr #4 align 2 personality ptr @__gxx_personality_v0 {
  %2 = getelementptr inbounds nuw i8, ptr %0, i64 43344
  tail call void @_ZN5TimerD1Ev(ptr noundef nonnull align 8 dereferenceable(72) %2) #23
  %3 = getelementptr inbounds nuw i8, ptr %0, i64 43320
  %4 = load ptr, ptr %3, align 8
  %5 = getelementptr inbounds i8, ptr %0, i64 43328
  %6 = load ptr, ptr %5, align 8
  %.not4.i.i.i.i = icmp eq ptr %4, %6
  br i1 %.not4.i.i.i.i, label %_ZSt8_DestroyIP5TimerS0_EvT_S2_RSaIT0_E.exit.i, label %.lr.ph.i.i.i.i

.lr.ph.i.i.i.i:                                   ; preds = %1, %.lr.ph.i.i.i.i
  %.05.i.i.i.i = phi ptr [ %7, %.lr.ph.i.i.i.i ], [ %4, %1 ]
  tail call void @_ZN5TimerD1Ev(ptr noundef nonnull align 8 dereferenceable(72) %.05.i.i.i.i) #23
  %7 = getelementptr inbounds i8, ptr %.05.i.i.i.i, i64 72
  %.not.i.i.i.i = icmp eq ptr %7, %6
  br i1 %.not.i.i.i.i, label %_ZSt8_DestroyIP5TimerS0_EvT_S2_RSaIT0_E.exitthread-pre-split.i, label %.lr.ph.i.i.i.i, !llvm.loop !6

_ZSt8_DestroyIP5TimerS0_EvT_S2_RSaIT0_E.exitthread-pre-split.i: ; preds = %.lr.ph.i.i.i.i
  %.pr.i = load ptr, ptr %3, align 8
  br label %_ZSt8_DestroyIP5TimerS0_EvT_S2_RSaIT0_E.exit.i

_ZSt8_DestroyIP5TimerS0_EvT_S2_RSaIT0_E.exit.i:   ; preds = %_ZSt8_DestroyIP5TimerS0_EvT_S2_RSaIT0_E.exitthread-pre-split.i, %1
  %8 = phi ptr [ %.pr.i, %_ZSt8_DestroyIP5TimerS0_EvT_S2_RSaIT0_E.exitthread-pre-split.i ], [ %4, %1 ]
  %.not.i.i.i = icmp eq ptr %8, null
  br i1 %.not.i.i.i, label %_ZNSt6vectorI5TimerSaIS0_EED2Ev.exit, label %9

9:                                                ; preds = %_ZSt8_DestroyIP5TimerS0_EvT_S2_RSaIT0_E.exit.i
  %10 = getelementptr inbounds i8, ptr %0, i64 43336
  %11 = load ptr, ptr %10, align 8
  %12 = ptrtoint ptr %11 to i64
  %13 = ptrtoint ptr %8 to i64
  %14 = sub i64 %12, %13
  tail call void @_ZdlPvm(ptr noundef nonnull %8, i64 noundef %14) #24
  br label %_ZNSt6vectorI5TimerSaIS0_EED2Ev.exit

_ZNSt6vectorI5TimerSaIS0_EED2Ev.exit:             ; preds = %_ZSt8_DestroyIP5TimerS0_EvT_S2_RSaIT0_E.exit.i, %9
  %15 = getelementptr inbounds nuw i8, ptr %0, i64 43296
  %16 = load ptr, ptr %15, align 8
  %.not.i.i.i1 = icmp eq ptr %16, null
  br i1 %.not.i.i.i1, label %_ZNSt6vectorIiSaIiEED2Ev.exit, label %17

17:                                               ; preds = %_ZNSt6vectorI5TimerSaIS0_EED2Ev.exit
  %18 = getelementptr inbounds i8, ptr %0, i64 43312
  %19 = load ptr, ptr %18, align 8
  %20 = ptrtoint ptr %19 to i64
  %21 = ptrtoint ptr %16 to i64
  %22 = sub i64 %20, %21
  tail call void @_ZdlPvm(ptr noundef nonnull %16, i64 noundef %22) #24
  br label %_ZNSt6vectorIiSaIiEED2Ev.exit

_ZNSt6vectorIiSaIiEED2Ev.exit:                    ; preds = %_ZNSt6vectorI5TimerSaIS0_EED2Ev.exit, %17
  %23 = getelementptr inbounds nuw i8, ptr %0, i64 43264
  %24 = load ptr, ptr %23, align 8
  %.not.i.i.i2 = icmp eq ptr %24, null
  br i1 %.not.i.i.i2, label %_ZNSt6vectorIiSaIiEED2Ev.exit3, label %25

25:                                               ; preds = %_ZNSt6vectorIiSaIiEED2Ev.exit
  %26 = getelementptr inbounds i8, ptr %0, i64 43280
  %27 = load ptr, ptr %26, align 8
  %28 = ptrtoint ptr %27 to i64
  %29 = ptrtoint ptr %24 to i64
  %30 = sub i64 %28, %29
  tail call void @_ZdlPvm(ptr noundef nonnull %24, i64 noundef %30) #24
  br label %_ZNSt6vectorIiSaIiEED2Ev.exit3

_ZNSt6vectorIiSaIiEED2Ev.exit3:                   ; preds = %_ZNSt6vectorIiSaIiEED2Ev.exit, %25
  %31 = getelementptr inbounds nuw i8, ptr %0, i64 43240
  %32 = load ptr, ptr %31, align 8
  %.not.i.i.i4 = icmp eq ptr %32, null
  br i1 %.not.i.i.i4, label %_ZNSt6vectorIiSaIiEED2Ev.exit5, label %33

33:                                               ; preds = %_ZNSt6vectorIiSaIiEED2Ev.exit3
  %34 = getelementptr inbounds i8, ptr %0, i64 43256
  %35 = load ptr, ptr %34, align 8
  %36 = ptrtoint ptr %35 to i64
  %37 = ptrtoint ptr %32 to i64
  %38 = sub i64 %36, %37
  tail call void @_ZdlPvm(ptr noundef nonnull %32, i64 noundef %38) #24
  br label %_ZNSt6vectorIiSaIiEED2Ev.exit5

_ZNSt6vectorIiSaIiEED2Ev.exit5:                   ; preds = %_ZNSt6vectorIiSaIiEED2Ev.exit3, %33
  %39 = getelementptr inbounds nuw i8, ptr %0, i64 43216
  %40 = load ptr, ptr %39, align 8
  %.not.i.i.i6 = icmp eq ptr %40, null
  br i1 %.not.i.i.i6, label %_ZNSt6vectorIiSaIiEED2Ev.exit7, label %41

41:                                               ; preds = %_ZNSt6vectorIiSaIiEED2Ev.exit5
  %42 = getelementptr inbounds i8, ptr %0, i64 43232
  %43 = load ptr, ptr %42, align 8
  %44 = ptrtoint ptr %43 to i64
  %45 = ptrtoint ptr %40 to i64
  %46 = sub i64 %44, %45
  tail call void @_ZdlPvm(ptr noundef nonnull %40, i64 noundef %46) #24
  br label %_ZNSt6vectorIiSaIiEED2Ev.exit7

_ZNSt6vectorIiSaIiEED2Ev.exit7:                   ; preds = %_ZNSt6vectorIiSaIiEED2Ev.exit5, %41
  ret void
}